target datalayout = "e-m:e-p270:32:32-p271:32:32-p272:64:64-i64:64-i128:128-f80:128-n8:16:32:64-S128"
target triple = "x86_64-pc-linux-gnu"

%struct.FunctionCallInfoBaseData = type { ptr, ptr, ptr, i32, i8, i16, [0 x %struct.NullableDatum] }
%struct.NullableDatum = type { i64, i8 }
%struct.varattrib_1b = type { i8, [0 x i8] }
%struct.varattrib_1b_e = type { i8, i8, [0 x i8] }
%struct.anon.1 = type { i32, [0 x i8] }
%struct.NUMDesc = type { i32, i32, i32, i32, i32, i32, i32, i32, i32 }

; Function Attrs: inlinehint nounwind uwtable
define internal i64 @PointerGetDatum(ptr noundef %0) #4 {
  %2 = alloca ptr, align 8
  store ptr %0, ptr %2, align 8
  %3 = load ptr, ptr %2, align 8
  %4 = ptrtoint ptr %3 to i64
  ret i64 %4
}

; Function Attrs: inlinehint nounwind uwtable
define internal ptr @DatumGetNumeric(i64 noundef %0) #4 {
  %2 = alloca i64, align 8
  store i64 %0, ptr %2, align 8
  %3 = load i64, ptr %2, align 8
  %4 = call ptr @DatumGetPointer(i64 noundef %3)
  %5 = call ptr @pg_detoast_datum(ptr noundef %4)
  ret ptr %5
}

; Function Attrs: inlinehint nounwind uwtable
define internal i64 @NumericGetDatum(ptr noundef %0) #4 {
  %2 = alloca ptr, align 8
  store ptr %0, ptr %2, align 8
  %3 = load ptr, ptr %2, align 8
  %4 = call i64 @PointerGetDatum(ptr noundef %3)
  ret i64 %4
}

; Function Attrs: inlinehint nounwind uwtable
define internal i64 @Int32GetDatum(i32 noundef %0) #4 {
  %2 = alloca i32, align 4
  store i32 %0, ptr %2, align 4
  %3 = load i32, ptr %2, align 4
  %4 = sext i32 %3 to i64
  ret i64 %4
}

; Function Attrs: inlinehint nounwind uwtable
define internal i64 @ObjectIdGetDatum(i32 noundef %0) #4 {
  %2 = alloca i32, align 4
  store i32 %0, ptr %2, align 4
  %3 = load i32, ptr %2, align 4
  %4 = zext i32 %3 to i64
  ret i64 %4
}

; Function Attrs: inlinehint nounwind uwtable
define internal i64 @CStringGetDatum(ptr noundef %0) #4 {
  %2 = alloca ptr, align 8
  store ptr %0, ptr %2, align 8
  %3 = load ptr, ptr %2, align 8
  %4 = call i64 @PointerGetDatum(ptr noundef %3)
  ret i64 %4
}

; Function Attrs: inlinehint nounwind uwtable
define internal ptr @DatumGetPointer(i64 noundef %0) #4 {
  %2 = alloca i64, align 8
  store i64 %0, ptr %2, align 8
  %3 = load i64, ptr %2, align 8
  %4 = inttoptr i64 %3 to ptr
  ret ptr %4
}

; Function Attrs: nounwind uwtable
define dso_local i64 @numeric_to_number(ptr noundef %0) #0 {
  %2 = alloca i64, align 8
  %3 = alloca ptr, align 8
  %4 = alloca ptr, align 8
  %5 = alloca ptr, align 8
  %6 = alloca %struct.NUMDesc, align 4
  %7 = alloca i64, align 8
  %8 = alloca ptr, align 8
  %9 = alloca ptr, align 8
  %10 = alloca i8, align 1
  %11 = alloca i32, align 4
  %12 = alloca i32, align 4
  %13 = alloca i32, align 4
  %14 = alloca i32, align 4
  %15 = alloca ptr, align 8
  %16 = alloca ptr, align 8
  %17 = alloca ptr, align 8
  store ptr %0, ptr %3, align 8
  call void @llvm.lifetime.start.p0(i64 8, ptr %4) #11
  %18 = load ptr, ptr %3, align 8
  %19 = getelementptr inbounds nuw %struct.FunctionCallInfoBaseData, ptr %18, i32 0, i32 6
  %20 = getelementptr inbounds [0 x %struct.NullableDatum], ptr %19, i64 0, i64 0
  %21 = getelementptr inbounds nuw %struct.NullableDatum, ptr %20, i32 0, i32 0
  %22 = load i64, ptr %21, align 8
  %23 = call ptr @DatumGetPointer(i64 noundef %22)
  %24 = call ptr @pg_detoast_datum_packed(ptr noundef %23)
  store ptr %24, ptr %4, align 8
  call void @llvm.lifetime.start.p0(i64 8, ptr %5) #11
  %25 = load ptr, ptr %3, align 8
  %26 = getelementptr inbounds nuw %struct.FunctionCallInfoBaseData, ptr %25, i32 0, i32 6
  %27 = getelementptr inbounds [0 x %struct.NullableDatum], ptr %26, i64 0, i64 1
  %28 = getelementptr inbounds nuw %struct.NullableDatum, ptr %27, i32 0, i32 0
  %29 = load i64, ptr %28, align 8
  %30 = call ptr @DatumGetPointer(i64 noundef %29)
  %31 = call ptr @pg_detoast_datum_packed(ptr noundef %30)
  store ptr %31, ptr %5, align 8
  call void @llvm.lifetime.start.p0(i64 36, ptr %6) #11
  call void @llvm.lifetime.start.p0(i64 8, ptr %7) #11
  call void @llvm.lifetime.start.p0(i64 8, ptr %8) #11
  call void @llvm.lifetime.start.p0(i64 8, ptr %9) #11
  call void @llvm.lifetime.start.p0(i64 1, ptr %10) #11
  call void @llvm.lifetime.start.p0(i64 4, ptr %11) #11
  store i32 0, ptr %11, align 4
  call void @llvm.lifetime.start.p0(i64 4, ptr %12) #11
  call void @llvm.lifetime.start.p0(i64 4, ptr %13) #11
  %32 = load ptr, ptr %5, align 8
  %33 = getelementptr inbounds nuw %struct.varattrib_1b, ptr %32, i32 0, i32 0
  %34 = load i8, ptr %33, align 1
  %35 = zext i8 %34 to i32
  %36 = icmp eq i32 %35, 1
  br i1 %36, label %37, label %65

37:                                               ; preds = %1
  %38 = load ptr, ptr %5, align 8
  %39 = getelementptr inbounds nuw %struct.varattrib_1b_e, ptr %38, i32 0, i32 1
  %40 = load i8, ptr %39, align 1
  %41 = zext i8 %40 to i32
  %42 = icmp eq i32 %41, 1
  br i1 %42, label %43, label %44

43:                                               ; preds = %37
  br label %61

44:                                               ; preds = %37
  %45 = load ptr, ptr %5, align 8
  %46 = getelementptr inbounds nuw %struct.varattrib_1b_e, ptr %45, i32 0, i32 1
  %47 = load i8, ptr %46, align 1
  %48 = zext i8 %47 to i32
  %49 = and i32 %48, -2
  %50 = icmp eq i32 %49, 2
  br i1 %50, label %51, label %52

51:                                               ; preds = %44
  br label %59

52:                                               ; preds = %44
  %53 = load ptr, ptr %5, align 8
  %54 = getelementptr inbounds nuw %struct.varattrib_1b_e, ptr %53, i32 0, i32 1
  %55 = load i8, ptr %54, align 1
  %56 = zext i8 %55 to i32
  %57 = icmp eq i32 %56, 18
  %58 = select i1 %57, i64 16, i64 0
  br label %59

59:                                               ; preds = %52, %51
  %60 = phi i64 [ 8, %51 ], [ %58, %52 ]
  br label %61

61:                                               ; preds = %59, %43
  %62 = phi i64 [ 8, %43 ], [ %60, %59 ]
  %63 = add i64 2, %62
  %64 = sub i64 %63, 2
  br label %91

65:                                               ; preds = %1
  %66 = load ptr, ptr %5, align 8
  %67 = getelementptr inbounds nuw %struct.varattrib_1b, ptr %66, i32 0, i32 0
  %68 = load i8, ptr %67, align 1
  %69 = zext i8 %68 to i32
  %70 = and i32 %69, 1
  %71 = icmp eq i32 %70, 1
  br i1 %71, label %72, label %81

72:                                               ; preds = %65
  %73 = load ptr, ptr %5, align 8
  %74 = getelementptr inbounds nuw %struct.varattrib_1b, ptr %73, i32 0, i32 0
  %75 = load i8, ptr %74, align 1
  %76 = zext i8 %75 to i32
  %77 = ashr i32 %76, 1
  %78 = and i32 %77, 127
  %79 = sext i32 %78 to i64
  %80 = sub i64 %79, 1
  br label %89

81:                                               ; preds = %65
  %82 = load ptr, ptr %5, align 8
  %83 = getelementptr inbounds nuw %struct.anon.1, ptr %82, i32 0, i32 0
  %84 = load i32, ptr %83, align 4
  %85 = lshr i32 %84, 2
  %86 = and i32 %85, 1073741823
  %87 = sub i32 %86, 4
  %88 = zext i32 %87 to i64
  br label %89

89:                                               ; preds = %81, %72
  %90 = phi i64 [ %80, %72 ], [ %88, %81 ]
  br label %91

91:                                               ; preds = %89, %61
  %92 = phi i64 [ %64, %61 ], [ %90, %89 ]
  %93 = trunc i64 %92 to i32
  store i32 %93, ptr %11, align 4
  %94 = load i32, ptr %11, align 4
  %95 = icmp sle i32 %94, 0
  br i1 %95, label %99, label %96

96:                                               ; preds = %91
  %97 = load i32, ptr %11, align 4
  %98 = icmp sge i32 %97, 268435455
  br i1 %98, label %99, label %105

99:                                               ; preds = %96, %91
  br label %100

100:                                              ; preds = %99
  %101 = load ptr, ptr %3, align 8
  %102 = getelementptr inbounds nuw %struct.FunctionCallInfoBaseData, ptr %101, i32 0, i32 4
  store i8 1, ptr %102, align 4
  store i64 0, ptr %2, align 8
  store i32 1, ptr %14, align 4
  br label %246

103:                                              ; No predecessors!
  br label %104

104:                                              ; preds = %103
  br label %105

105:                                              ; preds = %104, %96
  %106 = load i32, ptr %11, align 4
  %107 = load ptr, ptr %5, align 8
  %108 = call ptr @NUM_cache(i32 noundef %106, ptr noundef %6, ptr noundef %107, ptr noundef %10)
  store ptr %108, ptr %8, align 8
  %109 = load i32, ptr %11, align 4
  %110 = mul i32 %109, 8
  %111 = add i32 %110, 1
  %112 = sext i32 %111 to i64
  %113 = call ptr @palloc(i64 noundef %112)
  store ptr %113, ptr %9, align 8
  %114 = load ptr, ptr %8, align 8
  %115 = load ptr, ptr %4, align 8
  %116 = getelementptr inbounds nuw %struct.varattrib_1b, ptr %115, i32 0, i32 0
  %117 = load i8, ptr %116, align 1
  %118 = zext i8 %117 to i32
  %119 = and i32 %118, 1
  %120 = icmp eq i32 %119, 1
  br i1 %120, label %121, label %125

121:                                              ; preds = %105
  %122 = load ptr, ptr %4, align 8
  %123 = getelementptr inbounds nuw %struct.varattrib_1b, ptr %122, i32 0, i32 1
  %124 = getelementptr inbounds [0 x i8], ptr %123, i64 0, i64 0
  br label %129

125:                                              ; preds = %105
  %126 = load ptr, ptr %4, align 8
  %127 = getelementptr inbounds nuw %struct.anon.1, ptr %126, i32 0, i32 1
  %128 = getelementptr inbounds [0 x i8], ptr %127, i64 0, i64 0
  br label %129

129:                                              ; preds = %125, %121
  %130 = phi ptr [ %124, %121 ], [ %128, %125 ]
  %131 = load ptr, ptr %9, align 8
  %132 = load ptr, ptr %4, align 8
  %133 = getelementptr inbounds nuw %struct.varattrib_1b, ptr %132, i32 0, i32 0
  %134 = load i8, ptr %133, align 1
  %135 = zext i8 %134 to i32
  %136 = icmp eq i32 %135, 1
  br i1 %136, label %137, label %165

137:                                              ; preds = %129
  %138 = load ptr, ptr %4, align 8
  %139 = getelementptr inbounds nuw %struct.varattrib_1b_e, ptr %138, i32 0, i32 1
  %140 = load i8, ptr %139, align 1
  %141 = zext i8 %140 to i32
  %142 = icmp eq i32 %141, 1
  br i1 %142, label %143, label %144

143:                                              ; preds = %137
  br label %161

144:                                              ; preds = %137
  %145 = load ptr, ptr %4, align 8
  %146 = getelementptr inbounds nuw %struct.varattrib_1b_e, ptr %145, i32 0, i32 1
  %147 = load i8, ptr %146, align 1
  %148 = zext i8 %147 to i32
  %149 = and i32 %148, -2
  %150 = icmp eq i32 %149, 2
  br i1 %150, label %151, label %152

151:                                              ; preds = %144
  br label %159

152:                                              ; preds = %144
  %153 = load ptr, ptr %4, align 8
  %154 = getelementptr inbounds nuw %struct.varattrib_1b_e, ptr %153, i32 0, i32 1
  %155 = load i8, ptr %154, align 1
  %156 = zext i8 %155 to i32
  %157 = icmp eq i32 %156, 18
  %158 = select i1 %157, i64 16, i64 0
  br label %159

159:                                              ; preds = %152, %151
  %160 = phi i64 [ 8, %151 ], [ %158, %152 ]
  br label %161

161:                                              ; preds = %159, %143
  %162 = phi i64 [ 8, %143 ], [ %160, %159 ]
  %163 = add i64 2, %162
  %164 = sub i64 %163, 2
  br label %191

165:                                              ; preds = %129
  %166 = load ptr, ptr %4, align 8
  %167 = getelementptr inbounds nuw %struct.varattrib_1b, ptr %166, i32 0, i32 0
  %168 = load i8, ptr %167, align 1
  %169 = zext i8 %168 to i32
  %170 = and i32 %169, 1
  %171 = icmp eq i32 %170, 1
  br i1 %171, label %172, label %181

172:                                              ; preds = %165
  %173 = load ptr, ptr %4, align 8
  %174 = getelementptr inbounds nuw %struct.varattrib_1b, ptr %173, i32 0, i32 0
  %175 = load i8, ptr %174, align 1
  %176 = zext i8 %175 to i32
  %177 = ashr i32 %176, 1
  %178 = and i32 %177, 127
  %179 = sext i32 %178 to i64
  %180 = sub i64 %179, 1
  br label %189

181:                                              ; preds = %165
  %182 = load ptr, ptr %4, align 8
  %183 = getelementptr inbounds nuw %struct.anon.1, ptr %182, i32 0, i32 0
  %184 = load i32, ptr %183, align 4
  %185 = lshr i32 %184, 2
  %186 = and i32 %185, 1073741823
  %187 = sub i32 %186, 4
  %188 = zext i32 %187 to i64
  br label %189

189:                                              ; preds = %181, %172
  %190 = phi i64 [ %180, %172 ], [ %188, %181 ]
  br label %191

191:                                              ; preds = %189, %161
  %192 = phi i64 [ %164, %161 ], [ %190, %189 ]
  %193 = trunc i64 %192 to i32
  %194 = load ptr, ptr %3, align 8
  %195 = getelementptr inbounds nuw %struct.FunctionCallInfoBaseData, ptr %194, i32 0, i32 3
  %196 = load i32, ptr %195, align 8
  %197 = call ptr @NUM_processor(ptr noundef %114, ptr noundef %6, ptr noundef %130, ptr noundef %131, i32 noundef %193, i32 noundef 0, i32 noundef 0, i1 noundef zeroext false, i32 noundef %196)
  %198 = getelementptr inbounds nuw %struct.NUMDesc, ptr %6, i32 0, i32 1
  %199 = load i32, ptr %198, align 4
  store i32 %199, ptr %12, align 4
  %200 = getelementptr inbounds nuw %struct.NUMDesc, ptr %6, i32 0, i32 0
  %201 = load i32, ptr %200, align 4
  %202 = getelementptr inbounds nuw %struct.NUMDesc, ptr %6, i32 0, i32 5
  %203 = load i32, ptr %202, align 4
  %204 = add i32 %201, %203
  %205 = load i32, ptr %12, align 4
  %206 = add i32 %204, %205
  store i32 %206, ptr %13, align 4
  %207 = load i8, ptr %10, align 1, !range !4, !noundef !5
  %208 = trunc i8 %207 to i1
  br i1 %208, label %209, label %211

209:                                              ; preds = %191
  %210 = load ptr, ptr %8, align 8
  call void @pfree(ptr noundef %210)
  br label %211

211:                                              ; preds = %209, %191
  %212 = load ptr, ptr %9, align 8
  %213 = call i64 @CStringGetDatum(ptr noundef %212)
  %214 = call i64 @ObjectIdGetDatum(i32 noundef 0)
  %215 = load i32, ptr %13, align 4
  %216 = shl i32 %215, 16
  %217 = load i32, ptr %12, align 4
  %218 = or i32 %216, %217
  %219 = add i32 %218, 4
  %220 = call i64 @Int32GetDatum(i32 noundef %219)
  %221 = call i64 @DirectFunctionCall3Coll(ptr noundef @numeric_in, i32 noundef 0, i64 noundef %213, i64 noundef %214, i64 noundef %220)
  store i64 %221, ptr %7, align 8
  %222 = getelementptr inbounds nuw %struct.NUMDesc, ptr %6, i32 0, i32 3
  %223 = load i32, ptr %222, align 4
  %224 = and i32 %223, 2048
  %225 = icmp ne i32 %224, 0
  br i1 %225, label %226, label %243

226:                                              ; preds = %211
  call void @llvm.lifetime.start.p0(i64 8, ptr %15) #11
  call void @llvm.lifetime.start.p0(i64 8, ptr %16) #11
  %227 = call ptr @int64_to_numeric(i64 noundef 10)
  store ptr %227, ptr %16, align 8
  call void @llvm.lifetime.start.p0(i64 8, ptr %17) #11
  %228 = getelementptr inbounds nuw %struct.NUMDesc, ptr %6, i32 0, i32 5
  %229 = load i32, ptr %228, align 4
  %230 = sub i32 0, %229
  %231 = sext i32 %230 to i64
  %232 = call ptr @int64_to_numeric(i64 noundef %231)
  store ptr %232, ptr %17, align 8
  %233 = load ptr, ptr %16, align 8
  %234 = call i64 @NumericGetDatum(ptr noundef %233)
  %235 = load ptr, ptr %17, align 8
  %236 = call i64 @NumericGetDatum(ptr noundef %235)
  %237 = call i64 @DirectFunctionCall2Coll(ptr noundef @numeric_power, i32 noundef 0, i64 noundef %234, i64 noundef %236)
  %238 = call ptr @DatumGetNumeric(i64 noundef %237)
  store ptr %238, ptr %15, align 8
  %239 = load i64, ptr %7, align 8
  %240 = load ptr, ptr %15, align 8
  %241 = call i64 @NumericGetDatum(ptr noundef %240)
  %242 = call i64 @DirectFunctionCall2Coll(ptr noundef @numeric_mul, i32 noundef 0, i64 noundef %239, i64 noundef %241)
  store i64 %242, ptr %7, align 8
  call void @llvm.lifetime.end.p0(i64 8, ptr %17) #11
  call void @llvm.lifetime.end.p0(i64 8, ptr %16) #11
  call void @llvm.lifetime.end.p0(i64 8, ptr %15) #11
  br label %243

243:                                              ; preds = %226, %211
  %244 = load ptr, ptr %9, align 8
  call void @pfree(ptr noundef %244)
  %245 = load i64, ptr %7, align 8
  store i64 %245, ptr %2, align 8
  store i32 1, ptr %14, align 4
  br label %246

246:                                              ; preds = %243, %100
  call void @llvm.lifetime.end.p0(i64 4, ptr %13) #11
  call void @llvm.lifetime.end.p0(i64 4, ptr %12) #11
  call void @llvm.lifetime.end.p0(i64 4, ptr %11) #11
  call void @llvm.lifetime.end.p0(i64 1, ptr %10) #11
  call void @llvm.lifetime.end.p0(i64 8, ptr %9) #11
  call void @llvm.lifetime.end.p0(i64 8, ptr %8) #11
  call void @llvm.lifetime.end.p0(i64 8, ptr %7) #11
  call void @llvm.lifetime.end.p0(i64 36, ptr %6) #11
  call void @llvm.lifetime.end.p0(i64 8, ptr %5) #11
  call void @llvm.lifetime.end.p0(i64 8, ptr %4) #11
  %247 = load i64, ptr %2, align 8
  ret i64 %247
}