; Function Attrs: nounwind uwtable
define dso_local i64 @numeric_to_number(ptr noundef captures(none) %0) local_unnamed_addr #0 {
  %2 = alloca %struct.NUMDesc, align 4
  %3 = alloca i8, align 1
  %4 = getelementptr inbounds nuw i8, ptr %0, i64 32
  %5 = load i64, ptr %4, align 8
  %6 = inttoptr i64 %5 to ptr
  %7 = tail call ptr @pg_detoast_datum_packed(ptr noundef %6) #18
  %8 = getelementptr inbounds nuw i8, ptr %0, i64 48
  %9 = load i64, ptr %8, align 8
  %10 = inttoptr i64 %9 to ptr
  %11 = tail call ptr @pg_detoast_datum_packed(ptr noundef %10) #18
  call void @llvm.lifetime.start.p0(i64 36, ptr nonnull %2) #18
  call void @llvm.lifetime.start.p0(i64 1, ptr nonnull %3) #18
  %12 = load i8, ptr %11, align 1
  %13 = zext i8 %12 to i32
  %14 = icmp eq i8 %12, 1
  br i1 %14, label %15, label %24

15:                                               ; preds = %1
  %16 = getelementptr inbounds nuw i8, ptr %11, i64 1
  %17 = load i8, ptr %16, align 1
  %18 = icmp eq i8 %17, 1
  %19 = and i8 %17, -2
  %20 = icmp eq i8 %19, 2
  %or.cond49 = or i1 %18, %20
  %21 = icmp eq i8 %17, 18
  %22 = select i1 %21, i32 16, i32 0
  %23 = select i1 %or.cond49, i32 8, i32 %22
  br label %33

24:                                               ; preds = %1
  %25 = and i32 %13, 1
  %.not = icmp eq i32 %25, 0
  br i1 %.not, label %29, label %26

26:                                               ; preds = %24
  %27 = lshr i32 %13, 1
  %28 = add nsw i32 %27, -1
  br label %33

29:                                               ; preds = %24
  %30 = load i32, ptr %11, align 4
  %31 = lshr i32 %30, 2
  %32 = add nsw i32 %31, -4
  br label %33

33:                                               ; preds = %26, %29, %15
  %34 = phi i32 [ %23, %15 ], [ %28, %26 ], [ %32, %29 ]
  %35 = add nsw i32 %34, -268435455
  %or.cond = icmp ult i32 %35, -268435454
  br i1 %or.cond, label %36, label %38

36:                                               ; preds = %33
  %37 = getelementptr inbounds nuw i8, ptr %0, i64 28
  store i8 1, ptr %37, align 4
  br label %102

38:                                               ; preds = %33
  %39 = call fastcc ptr @NUM_cache(i32 noundef %34, ptr noundef %2, ptr noundef nonnull %11, ptr noundef %3)
  %40 = shl nuw nsw i32 %34, 3
  %41 = or disjoint i32 %40, 1
  %42 = zext nneg i32 %41 to i64
  %43 = tail call ptr @palloc(i64 noundef %42) #18
  %44 = load i8, ptr %7, align 1
  %45 = zext i8 %44 to i32
  %46 = and i32 %45, 1
  %.not46 = icmp eq i32 %46, 0
  %47 = getelementptr inbounds nuw i8, ptr %7, i64 1
  %48 = getelementptr inbounds nuw i8, ptr %7, i64 4
  %49 = select i1 %.not46, ptr %48, ptr %47
  %50 = icmp eq i8 %44, 1
  br i1 %50, label %51, label %59

51:                                               ; preds = %38
  %52 = load i8, ptr %47, align 1
  %53 = icmp eq i8 %52, 1
  %54 = and i8 %52, -2
  %55 = icmp eq i8 %54, 2
  %or.cond51 = or i1 %53, %55
  %56 = icmp eq i8 %52, 18
  %57 = select i1 %56, i32 16, i32 0
  %58 = select i1 %or.cond51, i32 8, i32 %57
  br label %67

59:                                               ; preds = %38
  br i1 %.not46, label %63, label %60

60:                                               ; preds = %59
  %61 = lshr i32 %45, 1
  %62 = add nsw i32 %61, -1
  br label %67

63:                                               ; preds = %59
  %64 = load i32, ptr %7, align 4
  %65 = lshr i32 %64, 2
  %66 = add nsw i32 %65, -4
  br label %67

67:                                               ; preds = %60, %63, %51
  %68 = phi i32 [ %58, %51 ], [ %62, %60 ], [ %66, %63 ]
  call fastcc void @NUM_processor(ptr noundef %39, ptr noundef %2, ptr noundef nonnull %49, ptr noundef %43, i32 noundef %68, i32 noundef 0, i32 noundef 0, i1 noundef zeroext false)
  %69 = getelementptr inbounds nuw i8, ptr %2, i64 4
  %70 = load i32, ptr %69, align 4
  %71 = load i32, ptr %2, align 4
  %72 = getelementptr inbounds nuw i8, ptr %2, i64 20
  %73 = load i32, ptr %72, align 4
  %74 = add i32 %71, %70
  %75 = add i32 %74, %73
  %76 = load i8, ptr %3, align 1, !range !4, !noundef !5
  %77 = trunc nuw i8 %76 to i1
  br i1 %77, label %78, label %79

78:                                               ; preds = %67
  tail call void @pfree(ptr noundef %39) #18
  br label %79

79:                                               ; preds = %78, %67
  %80 = ptrtoint ptr %43 to i64
  %81 = shl i32 %75, 16
  %82 = or i32 %81, %70
  %83 = add i32 %82, 4
  %84 = sext i32 %83 to i64
  %85 = tail call i64 @DirectFunctionCall3Coll(ptr noundef nonnull @numeric_in, i32 noundef 0, i64 noundef %80, i64 noundef 0, i64 noundef %84) #18
  %86 = getelementptr inbounds nuw i8, ptr %2, i64 12
  %87 = load i32, ptr %86, align 4
  %88 = and i32 %87, 2048
  %.not47 = icmp eq i32 %88, 0
  br i1 %.not47, label %101, label %89

89:                                               ; preds = %79
  %90 = tail call ptr @int64_to_numeric(i64 noundef 10) #18
  %91 = sub i32 0, %73
  %92 = sext i32 %91 to i64
  %93 = tail call ptr @int64_to_numeric(i64 noundef %92) #18
  %94 = ptrtoint ptr %90 to i64
  %95 = ptrtoint ptr %93 to i64
  %96 = tail call i64 @DirectFunctionCall2Coll(ptr noundef nonnull @numeric_power, i32 noundef 0, i64 noundef %94, i64 noundef %95) #18
  %97 = inttoptr i64 %96 to ptr
  %98 = tail call ptr @pg_detoast_datum(ptr noundef %97) #18
  %99 = ptrtoint ptr %98 to i64
  %100 = tail call i64 @DirectFunctionCall2Coll(ptr noundef nonnull @numeric_mul, i32 noundef 0, i64 noundef %85, i64 noundef %99) #18
  br label %101

101:                                              ; preds = %89, %79
  %.040 = phi i64 [ %100, %89 ], [ %85, %79 ]
  tail call void @pfree(ptr noundef %43) #18
  br label %102

102:                                              ; preds = %101, %36
  %.0 = phi i64 [ 0, %36 ], [ %.040, %101 ]
  call void @llvm.lifetime.end.p0(i64 1, ptr nonnull %3) #18
  call void @llvm.lifetime.end.p0(i64 36, ptr nonnull %2) #18
  ret i64 %.0
}